; Function Attrs: mustprogress nounwind null_pointer_is_valid sspstrong uwtable
define void @_ZN25BluetoothHciSummaryDialogD2Ev(ptr noundef align 8 dereferenceable_or_null(328) initializes((0, 8), (16, 24)) %0) unnamed_addr #8 align 2 personality ptr @__gxx_personality_v0 {
  store ptr getelementptr inbounds nuw inrange(-16, 496) (i8, ptr @_ZTV25BluetoothHciSummaryDialog, i64 16), ptr %0, align 8
  %2 = getelementptr inbounds nuw i8, ptr %0, i64 16
  store ptr getelementptr inbounds nuw inrange(-16, 64) (i8, ptr @_ZTV25BluetoothHciSummaryDialog, i64 528), ptr %2, align 8
  %3 = getelementptr inbounds nuw i8, ptr %0, i64 144
  %4 = load ptr, ptr %3, align 8
  %5 = icmp eq ptr %4, null
  br i1 %5, label %7, label %6

6:                                                ; preds = %1
  tail call void @_ZdlPvm(ptr noundef nonnull %4, i64 noundef 144) #24
  br label %7

7:                                                ; preds = %6, %1
  %8 = getelementptr inbounds nuw i8, ptr %0, i64 152
  invoke void @remove_tap_listener(ptr noundef nonnull %8)
          to label %9 unwind label %21

9:                                                ; preds = %7
  %10 = getelementptr inbounds nuw i8, ptr %0, i64 176
  tail call void @_ZN5QMenuD1Ev(ptr noundef nonnull align 8 dereferenceable_or_null(40) %10) #23
  store ptr getelementptr inbounds nuw inrange(-16, 496) (i8, ptr @_ZTV15WiresharkDialog, i64 16), ptr %0, align 8
  store ptr getelementptr inbounds nuw inrange(-16, 64) (i8, ptr @_ZTV15WiresharkDialog, i64 528), ptr %2, align 8
  %11 = getelementptr inbounds nuw i8, ptr %0, i64 112
  %12 = load ptr, ptr %11, align 8
  %.not.i.i.i.i = icmp eq ptr %12, null
  br i1 %.not.i.i.i.i, label %_ZN5QListIPvED2Ev.exit.i, label %_ZN17QArrayDataPointerIPvE5derefEv.exit.i.i.i

_ZN17QArrayDataPointerIPvE5derefEv.exit.i.i.i:    ; preds = %9
  %13 = atomicrmw sub ptr %12, i32 1 seq_cst, align 4
  %.not.i.i.i = icmp eq i32 %13, 1
  br i1 %.not.i.i.i, label %14, label %_ZN5QListIPvED2Ev.exit.i

14:                                               ; preds = %_ZN17QArrayDataPointerIPvE5derefEv.exit.i.i.i
  %15 = load ptr, ptr %11, align 8
  tail call void @_ZN10QArrayData10deallocateEPS_xx(ptr noundef %15, i64 noundef 8, i64 noundef 8) #23
  br label %_ZN5QListIPvED2Ev.exit.i

_ZN5QListIPvED2Ev.exit.i:                         ; preds = %14, %_ZN17QArrayDataPointerIPvE5derefEv.exit.i.i.i, %9
  %16 = getelementptr inbounds nuw i8, ptr %0, i64 88
  %17 = load ptr, ptr %16, align 8
  %.not.i.i.i1.i = icmp eq ptr %17, null
  br i1 %.not.i.i.i1.i, label %_ZN15WiresharkDialogD2Ev.exit, label %_ZN17QArrayDataPointerIDsE5derefEv.exit.i.i.i

_ZN17QArrayDataPointerIDsE5derefEv.exit.i.i.i:    ; preds = %_ZN5QListIPvED2Ev.exit.i
  %18 = atomicrmw sub ptr %17, i32 1 seq_cst, align 4
  %.not.i.i2.i = icmp eq i32 %18, 1
  br i1 %.not.i.i2.i, label %19, label %_ZN15WiresharkDialogD2Ev.exit

19:                                               ; preds = %_ZN17QArrayDataPointerIDsE5derefEv.exit.i.i.i
  %20 = load ptr, ptr %16, align 8
  tail call void @_ZN10QArrayData10deallocateEPS_xx(ptr noundef %20, i64 noundef 2, i64 noundef 8) #23
  br label %_ZN15WiresharkDialogD2Ev.exit

_ZN15WiresharkDialogD2Ev.exit:                    ; preds = %_ZN5QListIPvED2Ev.exit.i, %_ZN17QArrayDataPointerIDsE5derefEv.exit.i.i.i, %19
  tail call void @_ZN19GeometryStateDialogD2Ev(ptr noundef align 8 dereferenceable_or_null(141) %0) #23
  ret void

21:                                               ; preds = %7
  %22 = landingpad { ptr, i32 }
          catch ptr null
  %23 = extractvalue { ptr, i32 } %22, 0
  tail call void @__clang_call_terminate(ptr %23) #27
  unreachable
}